target datalayout = "e-m:e-p270:32:32-p271:32:32-p272:64:64-i64:64-i128:128-f80:128-n8:16:32:64-S128"
target triple = "x86_64-pc-linux-gnu"

@RecoveryLockXidHash = internal global ptr null, align 8

; Function Attrs: nounwind uwtable
define internal void @StandbyReleaseLocks(i32 noundef %0) #0 {
  %2 = alloca i32, align 4
  %3 = alloca ptr, align 8
  store i32 %0, ptr %2, align 4
  call void @llvm.lifetime.start.p0(i64 8, ptr %3) #8
  %4 = load i32, ptr %2, align 4
  %5 = icmp ne i32 %4, 0
  br i1 %5, label %6, label %16

6:                                                ; preds = %1
  %7 = load ptr, ptr @RecoveryLockXidHash, align 8
  %8 = call ptr @hash_search(ptr noundef %7, ptr noundef %2, i32 noundef 0, ptr noundef null)
  store ptr %8, ptr %3, align 8
  %9 = icmp ne ptr %8, null
  br i1 %9, label %10, label %15

10:                                               ; preds = %6
  %11 = load ptr, ptr %3, align 8
  call void @StandbyReleaseXidEntryLocks(ptr noundef %11)
  %12 = load ptr, ptr @RecoveryLockXidHash, align 8
  %13 = load ptr, ptr %3, align 8
  %14 = call ptr @hash_search(ptr noundef %12, ptr noundef %13, i32 noundef 2, ptr noundef null)
  br label %15

15:                                               ; preds = %10, %6
  br label %17

16:                                               ; preds = %1
  call void @StandbyReleaseAllLocks()
  br label %17

17:                                               ; preds = %16, %15
  call void @llvm.lifetime.end.p0(i64 8, ptr %3) #8
  ret void
}

; Function Attrs: nounwind uwtable
define dso_local void @StandbyReleaseLockTree(i32 noundef %0, i32 noundef %1, ptr noundef %2) #0 {
  %4 = alloca i32, align 4
  %5 = alloca i32, align 4
  %6 = alloca ptr, align 8
  %7 = alloca i32, align 4
  store i32 %0, ptr %4, align 4
  store i32 %1, ptr %5, align 4
  store ptr %2, ptr %6, align 8
  call void @llvm.lifetime.start.p0(i64 4, ptr %7) #8
  %8 = load i32, ptr %4, align 4
  call void @StandbyReleaseLocks(i32 noundef %8)
  store i32 0, ptr %7, align 4
  br label %9

9:                                                ; preds = %19, %3
  %10 = load i32, ptr %7, align 4
  %11 = load i32, ptr %5, align 4
  %12 = icmp slt i32 %10, %11
  br i1 %12, label %13, label %22

13:                                               ; preds = %9
  %14 = load ptr, ptr %6, align 8
  %15 = load i32, ptr %7, align 4
  %16 = sext i32 %15 to i64
  %17 = getelementptr inbounds i32, ptr %14, i64 %16
  %18 = load i32, ptr %17, align 4
  call void @StandbyReleaseLocks(i32 noundef %18)
  br label %19

19:                                               ; preds = %13
  %20 = load i32, ptr %7, align 4
  %21 = add i32 %20, 1
  store i32 %21, ptr %7, align 4
  br label %9, !llvm.loop !13

22:                                               ; preds = %9
  call void @llvm.lifetime.end.p0(i64 4, ptr %7) #8
  ret void
}