; Function Attrs: nounwind uwtable
define dso_local void @StandbyReleaseLockTree(i32 noundef %0, i32 noundef %1, ptr noundef readonly captures(none) %2) local_unnamed_addr #0 {
  %4 = alloca i32, align 4
  %5 = alloca i32, align 4
  call void @llvm.lifetime.start.p0(i64 4, ptr nonnull %5)
  store i32 %0, ptr %5, align 4
  %.not.i = icmp eq i32 %0, 0
  br i1 %.not.i, label %12, label %6

6:                                                ; preds = %3
  %7 = load ptr, ptr @RecoveryLockXidHash, align 8
  %8 = call ptr @hash_search(ptr noundef %7, ptr noundef nonnull %5, i32 noundef 0, ptr noundef null) #7
  %.not2.i = icmp eq ptr %8, null
  br i1 %.not2.i, label %StandbyReleaseLocks.exit, label %9

9:                                                ; preds = %6
  call fastcc void @StandbyReleaseXidEntryLocks(ptr noundef %8)
  %10 = load ptr, ptr @RecoveryLockXidHash, align 8
  %11 = call ptr @hash_search(ptr noundef %10, ptr noundef nonnull %8, i32 noundef 2, ptr noundef null) #7
  br label %StandbyReleaseLocks.exit

12:                                               ; preds = %3
  tail call void @StandbyReleaseAllLocks()
  br label %StandbyReleaseLocks.exit

StandbyReleaseLocks.exit:                         ; preds = %6, %9, %12
  call void @llvm.lifetime.end.p0(i64 4, ptr nonnull %5)
  %13 = icmp sgt i32 %1, 0
  br i1 %13, label %.lr.ph.preheader, label %._crit_edge

.lr.ph.preheader:                                 ; preds = %StandbyReleaseLocks.exit
  %wide.trip.count = zext nneg i32 %1 to i64
  br label %.lr.ph

.lr.ph:                                           ; preds = %.lr.ph.preheader, %StandbyReleaseLocks.exit7
  %indvars.iv = phi i64 [ 0, %.lr.ph.preheader ], [ %indvars.iv.next, %StandbyReleaseLocks.exit7 ]
  %14 = getelementptr inbounds nuw i32, ptr %2, i64 %indvars.iv
  %15 = load i32, ptr %14, align 4
  call void @llvm.lifetime.start.p0(i64 4, ptr nonnull %4)
  store i32 %15, ptr %4, align 4
  %.not.i5 = icmp eq i32 %15, 0
  br i1 %.not.i5, label %22, label %16

16:                                               ; preds = %.lr.ph
  %17 = load ptr, ptr @RecoveryLockXidHash, align 8
  %18 = call ptr @hash_search(ptr noundef %17, ptr noundef nonnull %4, i32 noundef 0, ptr noundef null) #7
  %.not2.i6 = icmp eq ptr %18, null
  br i1 %.not2.i6, label %StandbyReleaseLocks.exit7, label %19

19:                                               ; preds = %16
  call fastcc void @StandbyReleaseXidEntryLocks(ptr noundef %18)
  %20 = load ptr, ptr @RecoveryLockXidHash, align 8
  %21 = call ptr @hash_search(ptr noundef %20, ptr noundef nonnull %18, i32 noundef 2, ptr noundef null) #7
  br label %StandbyReleaseLocks.exit7

22:                                               ; preds = %.lr.ph
  call void @StandbyReleaseAllLocks()
  br label %StandbyReleaseLocks.exit7

StandbyReleaseLocks.exit7:                        ; preds = %16, %19, %22
  call void @llvm.lifetime.end.p0(i64 4, ptr nonnull %4)
  %indvars.iv.next = add nuw nsw i64 %indvars.iv, 1
  %exitcond.not = icmp eq i64 %indvars.iv.next, %wide.trip.count
  br i1 %exitcond.not, label %._crit_edge, label %.lr.ph, !llvm.loop !14

._crit_edge:                                      ; preds = %StandbyReleaseLocks.exit7, %StandbyReleaseLocks.exit
  ret void
}